(lp0
(i__main__
OntologyTerm
p1
(dp2
S'tag_label'
p3
S'surprised'
p4
sS'label'
p5
S'surprise'
p6
sS'id'
p7
S'MFOEM:000032'
p8
sS'definition'
p9
S'Surprise is a neutral emotion caused by encountering unexpected events of all kinds. May be experienced as negative if the surprising event is evaluated as negative, or positive if the surprising event is evaluated as positive. [Source: OCEAS]'
p10
sS'category'
p11
S'emotion'
p12
sba(i__main__
OntologyTerm
p13
(dp14
S'tag_label'
p15
S'happy'
p16
sS'label'
p17
S'happiness'
p18
sS'id'
p19
S'MFOEM:000042'
p20
sS'definition'
p21
S'A positive emotion which is experienced in reaction to a positive experience or event. [Source: OCEAS]'
p22
sS'category'
p23
g12
sba(i__main__
OntologyTerm
p24
(dp25
S'tag_label'
p26
S'mastery pleasure'
p27
sS'label'
p28
S'mastery pleasure'
p29
sS'id'
p30
S'MFOEM:000037'
p31
sS'definition'
p32
S'Pleasure derived from mastery, including the experience of flow. [Source: OCEAS]'
p33
sS'category'
p34
g12
sba(i__main__
OntologyTerm
p35
(dp36
S'tag_label'
p37
S'annoyed'
p38
sS'label'
p39
S'annoyance'
p40
sS'id'
p41
S'MFOEM:000012'
p42
sS'definition'
p43
S''
p44
sS'category'
p45
g12
sba(i__main__
OntologyTerm
p46
(dp47
S'tag_label'
p48
S'passionately loving'
p49
sS'label'
p50
S'passionate love'
p51
sS'id'
p52
S'MFOEM:000050'
p53
sS'definition'
p54
S'A powerful longing for union with the beloved, characterised by a confusion of feelings -- elation and pain, tenderness and sexuality, altruism and jealousy.'
p55
sS'category'
p56
g12
sba(i__main__
OntologyTerm
p57
(dp58
S'tag_label'
p59
S'sensory pleasure'
p60
sS'label'
p61
S'sensory pleasure'
p62
sS'id'
p63
S'MFOEM:000036'
p64
sS'definition'
p65
S'Pleasure in smell, touch, sight, sound and taste. [Source: OCEAS]'
p66
sS'category'
p67
g12
sba(i__main__
OntologyTerm
p68
(dp69
S'tag_label'
p70
S'disgusted'
p71
sS'label'
p72
S'disgust'
p73
sS'id'
p74
S'MFOEM:000019'
p75
sS'definition'
p76
S'A negative emotion which guards the body against dangerous foods and microbial infections. The basic physiological disgust has also culturally evolved to incorporate moral disgust which protects the self from nonphysical threats such as moral violations.  [Source: OCEAS]'
p77
sS'category'
p78
g12
sba(i__main__
OntologyTerm
p79
(dp80
S'tag_label'
p81
S'grieving'
p82
sS'label'
p83
S'grief'
p84
sS'id'
p85
S'MFOEM:000016'
p86
sS'definition'
p87
S"Grief is an intense negative emotion following a bereavement, i.e. the loss of a significant person through that person's death. [Source: OCEAS]"
p88
sS'category'
p89
g12
sba(i__main__
OntologyTerm
p90
(dp91
S'tag_label'
p92
S'furious'
p93
sS'label'
p94
S'fury'
p95
sS'id'
p96
S'MFOEM:000013'
p97
sS'definition'
p98
g44
sS'category'
p99
g12
sba(i__main__
OntologyTerm
p100
(dp101
S'tag_label'
p102
S'amused'
p103
sS'label'
p104
S'amusement'
p105
sS'id'
p106
S'MFOEM:000044'
p107
sS'definition'
p108
g44
sS'category'
p109
g12
sba(i__main__
OntologyTerm
p110
(dp111
S'tag_label'
p112
S'despairing'
p113
sS'label'
p114
S'despair'
p115
sS'id'
p116
S'MFOEM:000030'
p117
sS'definition'
p118
S'A negative, high intensity emotion characterised by loss of hope and loss of interest. Associated with action tendencies of harm to self or others. [Source: OCEAS]'
p119
sS'category'
p120
g12
sba(i__main__
OntologyTerm
p121
(dp122
S'tag_label'
p123
S'jealous'
p124
sS'label'
p125
S'jealousy'
p126
sS'id'
p127
S'MFOEM:000025'
p128
sS'definition'
p129
S'A negative emotion aroused when a person feels threatened by a rival in his or her relationship with another individual, in particular an intimate partner. Involves feelings of threat, fear, suspicion, distrust, anxiety, anger, betrayal, and rejection. [Source: OCEAS]'
p130
sS'category'
p131
g12
sba(i__main__
OntologyTerm
p132
(dp133
S'tag_label'
p134
S'embarrassed'
p135
sS'label'
p136
S'embarrassment'
p137
sS'id'
p138
S'MFOEM:000054'
p139
sS'definition'
p140
g44
sS'category'
p141
g12
sba(i__main__
OntologyTerm
p142
(dp143
S'tag_label'
p144
S'serene'
p145
sS'label'
p146
S'serenity'
p147
sS'id'
p148
S'MFOEM:000043'
p149
sS'definition'
p150
g44
sS'category'
p151
g12
sba(i__main__
OntologyTerm
p152
(dp153
S'tag_label'
p154
S'terrified'
p155
sS'label'
p156
S'terror'
p157
sS'id'
p158
S'MFOEM:000027'
p159
sS'definition'
p160
g44
sS'category'
p161
g12
sba(i__main__
OntologyTerm
p162
(dp163
S'tag_label'
p164
S'irritated'
p165
sS'label'
p166
S'irritation'
p167
sS'id'
p168
S'MFOEM:000011'
p169
sS'definition'
p170
S'An unpleasant emotion closely related to anger but lower in intensity and without the moral dimension of blame and seriousness that is implicated in anger. [Source: OCEAS]'
p171
sS'category'
p172
g12
sba(i__main__
OntologyTerm
p173
(dp174
S'tag_label'
p175
S'proud'
p176
sS'label'
p177
S'pride'
p178
sS'id'
p179
S'MFOEM:000041'
p180
sS'definition'
p181
S"A positive emotion associated with the appraisal of one's positive social worth, a signal that one is likely to be socially accepted. [Source: OCEAS]"
p182
sS'category'
p183
g12
sba(i__main__
OntologyTerm
p184
(dp185
S'tag_label'
p186
S'interested'
p187
sS'label'
p188
S'interest'
p189
sS'id'
p190
S'MFOEM:000033'
p191
sS'definition'
p192
S'Interest is a positive emotion which motivates learning, exploration and curiosity. Feelings of interest are associated with the novelty and complexity of stimuli. [Source: OCEAS]'
p193
sS'category'
p194
g12
sba(i__main__
OntologyTerm
p195
(dp196
S'tag_label'
p197
S'sad'
p198
sS'label'
p199
S'sadness'
p200
sS'id'
p201
S'MFOEM:000056'
p202
sS'definition'
p203
S"A negative emotion felt when an event is appraised as unpleasant, obstructive to one's goals and concerns, and one feels unable to cope with it or modify it. [Source: OCEAS]"
p204
sS'category'
p205
g12
sba(i__main__
OntologyTerm
p206
(dp207
S'tag_label'
p208
S'elated'
p209
sS'label'
p210
S'elation'
p211
sS'id'
p212
S'MFOEM:000045'
p213
sS'definition'
p214
g44
sS'category'
p215
g12
sba(i__main__
OntologyTerm
p216
(dp217
S'tag_label'
p218
S'loving'
p219
sS'label'
p220
S'love'
p221
sS'id'
p222
S'MFOEM:000048'
p223
sS'definition'
p224
S'A strong emotion associated with feelings of desire, warmth and intimacy for another person. [Source: OCEAS]'
p225
sS'category'
p226
g12
sba(i__main__
OntologyTerm
p227
(dp228
S'tag_label'
p229
S'stressed'
p230
sS'label'
p231
S'stress (emotion)'
p232
sS'id'
p233
S'MFOEM:000029'
p234
sS'definition'
p235
S'A negative emotion in response to a stressful elicitor. May be acute or chronic.  Associated with health implications, such as impaired resistance to infectious diseases. [Source: OCEAS]'
p236
sS'category'
p237
g12
sba(i__main__
OntologyTerm
p238
(dp239
S'tag_label'
p240
S'sexual pleasure'
p241
sS'label'
p242
S'sexual pleasure'
p243
sS'id'
p244
S'MFOEM:000040'
p245
sS'definition'
p246
g44
sS'category'
p247
g12
sba(i__main__
OntologyTerm
p248
(dp249
S'tag_label'
p250
S'aesthetic pleasure'
p251
sS'label'
p252
S'aesthetic pleasure'
p253
sS'id'
p254
S'MFOEM:000039'
p255
sS'definition'
p256
g44
sS'category'
p257
g12
sba(i__main__
OntologyTerm
p258
(dp259
S'tag_label'
p260
S'compassionate'
p261
sS'label'
p262
S'compassion'
p263
sS'id'
p264
S'MFOEM:000052'
p265
sS'definition'
p266
S"An emotion evoked for a person who is in distress. The conditions for compassion involve perceiving the other as in need, and valuing the other's welfare. Associated with altruistic motivation. [Source: OCEAS]"
p267
sS'category'
p268
g12
sba(i__main__
OntologyTerm
p269
(dp270
S'tag_label'
p271
S'euphoric'
p272
sS'label'
p273
S'euphoria'
p274
sS'id'
p275
S'MFOEM:000046'
p276
sS'definition'
p277
g44
sS'category'
p278
g12
sba(i__main__
OntologyTerm
p279
(dp280
S'tag_label'
p281
S'social pleasure'
p282
sS'label'
p283
S'social pleasure'
p284
sS'id'
p285
S'MFOEM:000038'
p286
sS'definition'
p287
S'Pleasure derived from social contact. [Source: OCEAS]'
p288
sS'category'
p289
g12
sba(i__main__
OntologyTerm
p290
(dp291
S'tag_label'
p292
S'anxious'
p293
sS'label'
p294
S'anxiety'
p295
sS'id'
p296
S'MFOEM:000028'
p297
sS'definition'
p298
S'A negative, aversive emotion provoked by the prospect of future threat. Distinguished from fear since it is triggered by a distal threat whereas fear is triggered by an immediate threat. Often gradual and long-lasting, whereas fear usually has sudden onset and offset.   [Source: OCEAS]'
p299
sS'category'
p300
g12
sba(i__main__
OntologyTerm
p301
(dp302
S'tag_label'
p303
S'enraged'
p304
sS'label'
p305
S'rage'
p306
sS'id'
p307
S'MFOEM:000014'
p308
sS'definition'
p309
g44
sS'category'
p310
g12
sba(i__main__
OntologyTerm
p311
(dp312
S'tag_label'
p313
S'bored'
p314
sS'label'
p315
S'boredom'
p316
sS'id'
p317
S'MFOEM:000166'
p318
sS'definition'
p319
g44
sS'category'
p320
g12
sba(i__main__
OntologyTerm
p321
(dp322
S'tag_label'
p323
S'contemptuous'
p324
sS'label'
p325
S'contempt'
p326
sS'id'
p327
S'MFOEM:000018'
p328
sS'definition'
p329
S'A negative emotion generally elicited by the negative evaluation of others and their actions. Usually elicited by violations of community codes. Closely related to anger and disgust. [Source: OCEAS]'
p330
sS'category'
p331
g12
sba(i__main__
OntologyTerm
p332
(dp333
S'tag_label'
p334
S'pleasure'
p335
sS'label'
p336
S'pleasure'
p337
sS'id'
p338
S'MFOEM:000035'
p339
sS'definition'
p340
S'A positively experienced emotion which is sought out (approached) and is associated with happiness, enjoyment, and satisfaction.  [Source: OCEAS]'
p341
sS'category'
p342
g12
sba(i__main__
OntologyTerm
p343
(dp344
S'tag_label'
p345
S'ashamed'
p346
sS'label'
p347
S'shame'
p348
sS'id'
p349
S'MFOEM:000055'
p350
sS'definition'
p351
g44
sS'category'
p352
g12
sba(i__main__
OntologyTerm
p353
(dp354
S'tag_label'
p355
S'panicked'
p356
sS'label'
p357
S'panic'
p358
sS'id'
p359
S'MFOEM:000164'
p360
sS'definition'
p361
S'A severe episode of fear with strong associated discomfort and thoughts of impending harm. '
p362
sS'category'
p363
g12
sba(i__main__
OntologyTerm
p364
(dp365
S'tag_label'
p366
S'hateful'
p367
sS'label'
p368
S'hate'
p369
sS'id'
p370
S'MFOEM:000024'
p371
sS'definition'
p372
S'A strong, negatively valenced emotion directed against a whole person for who or what they are. Often directed at whole groups based on religion, ethnicity, or race. [Source: OCEAS]'
p373
sS'category'
p374
g12
sba(i__main__
OntologyTerm
p375
(dp376
S'tag_label'
p377
S'angry'
p378
sS'label'
p379
S'anger'
p380
sS'id'
p381
S'MFOEM:000009'
p382
sS'definition'
p383
S'Anger is a negative emotion, characterised by feelings of unpleasantness and high arousal, in the form of antagonistic feelings and action tendencies. [Source: OCEAS]\n'
p384
sS'category'
p385
g12
sba(i__main__
OntologyTerm
p386
(dp387
S'tag_label'
p388
S'contented'
p389
sS'label'
p390
S'contentment'
p391
sS'id'
p392
S'MFOEM:000047'
p393
sS'definition'
p394
S"A pleasant emotion, which can be defined as a milder form of joy. Associated with physical inactivity ('do nothing' action tendencies). [Source: OCEAS]"
p395
sS'category'
p396
g12
sba(i__main__
OntologyTerm
p397
(dp398
S'tag_label'
p399
S'disappointed'
p400
sS'label'
p401
S'disappointment'
p402
sS'id'
p403
S'MFOEM:000051'
p404
sS'definition'
p405
S'Disappointment is a negative emotion which is triggered by the disconfirmation of the prospect of a desirable event. [Source: OCEAS]'
p406
sS'category'
p407
g12
sba(i__main__
OntologyTerm
p408
(dp409
S'tag_label'
p410
S'guilty'
p411
sS'label'
p412
S'guilt'
p413
sS'id'
p414
S'MFOEM:000053'
p415
sS'definition'
p416
S'A self-conscious emotion that occurs when a person brings about a negative outcome by acts of commission or omission. Associated wtih violations of internal or external moral standards. Closely related to embarrassment and shame. [Source: OCEAS]'
p417
sS'category'
p418
g12
sba(i__main__
OntologyTerm
p419
(dp420
S'tag_label'
p421
S'joyful'
p422
sS'label'
p423
S'joy'
p424
sS'id'
p425
S'MFOEM:000034'
p426
sS'definition'
p427
S'A pleasant, positive emotion which arises in safe and familiar circumstances, when people have made progress towards important personal goals, especially when the progress is better than expected. [Source: OCEAS]'
p428
sS'category'
p429
g12
sba(i__main__
OntologyTerm
p430
(dp431
S'tag_label'
p432
S'afraid'
p433
sS'label'
p434
S'fear'
p435
sS'id'
p436
S'MFOEM:000026'
p437
sS'definition'
p438
S'An activated, aversive emotion that motivates attempts to cope with events that provide threats to the survival or well-being of organisms. Characterised by feelings of threat and impending doom, and by an urge to get out of the situation. [Source: OCEAS]'
p439
sS'category'
p440
g12
sba(i__main__
OntologyTerm
p441
(dp442
S'tag_label'
p443
S'compassionately loving'
p444
sS'label'
p445
S'companionate love'
p446
sS'id'
p447
S'MFOEM:000049'
p448
sS'definition'
p449
S'Less intense, longer-lasting love which is characterised by affection, commitment, intimacy and a concern for the welfare of the loved one. [Source: OCEAS]'
p450
sS'category'
p451
g12
sba(i__main__
OntologyTerm
p452
(dp453
S'tag_label'
p454
S'out of control'
p455
sS'label'
p456
S'feeling out of control'
p457
sS'id'
p458
S'MFOEM:000116'
p459
sS'definition'
p460
S"The subjective feeling of not being in control, not being able to gain agency of one's own behavior. "
p461
sS'category'
p462
S'feeling'
p463
sba(i__main__
OntologyTerm
p464
(dp465
S'tag_label'
p466
S'good'
p467
sS'label'
p468
S'feeling good'
p469
sS'id'
p470
S'MFOEM:000079'
p471
sS'definition'
p472
S'The subjective emotional feeling of feeling good, positive.  '
p473
sS'category'
p474
g463
sba(i__main__
OntologyTerm
p475
(dp476
S'tag_label'
p477
S'at ease'
p478
sS'label'
p479
S'feeling at ease'
p480
sS'id'
p481
S'MFOEM:000107'
p482
sS'definition'
p483
S'The subjective emotional feeling of being at ease, comfortable, relaxed. '
p484
sS'category'
p485
g463
sba(i__main__
OntologyTerm
p486
(dp487
S'tag_label'
p488
S'in control'
p489
sS'label'
p490
S'feeling in control'
p491
sS'id'
p492
S'MFOEM:000110'
p493
sS'definition'
p494
S"The subjective emotional feeling that one is in control of oneself, that one is fully the agent of one's behavior. "
p495
sS'category'
p496
g463
sba(i__main__
OntologyTerm
p497
(dp498
S'tag_label'
p499
S'exhausted'
p500
sS'label'
p501
S'feeling exhausted'
p502
sS'id'
p503
S'MFOEM:000112'
p504
sS'definition'
p505
S'The subjective emotional feeling of exhaustion, an extremely strong form of feeling tired. '
p506
sS'category'
p507
g463
sba(i__main__
OntologyTerm
p508
(dp509
S'tag_label'
p510
S'energetic'
p511
sS'label'
p512
S'feeling energetic'
p513
sS'id'
p514
S'MFOEM:000109'
p515
sS'definition'
p516
S'The subjective emotional feeling of having lots of energy, being energetic. '
p517
sS'category'
p518
g463
sba(i__main__
OntologyTerm
p519
(dp520
S'tag_label'
p521
S'tired'
p522
sS'label'
p523
S'feeling tired'
p524
sS'id'
p525
S'MFOEM:000080'
p526
sS'definition'
p527
S'The subjective emotional feeling of tiredness, needing sleep.'
p528
sS'category'
p529
g463
sba(i__main__
OntologyTerm
p530
(dp531
S'tag_label'
p532
S'restless'
p533
sS'label'
p534
S'feeling restless'
p535
sS'id'
p536
S'MFOEM:000111'
p537
sS'definition'
p538
S'The subjective emotional feeling of restlessness, a state of not being calm, of an agitation to do something. '
p539
sS'category'
p540
g463
sba(i__main__
OntologyTerm
p541
(dp542
S'tag_label'
p543
S'weak'
p544
sS'label'
p545
S'feeling weak'
p546
sS'id'
p547
S'MFOEM:000119'
p548
sS'definition'
p549
S'The subjective feeling of weakness, lack of energy and/or capability, faintness, absence of strength. '
p550
sS'category'
p551
g463
sba(i__main__
OntologyTerm
p552
(dp553
S'tag_label'
p554
S'bad'
p555
sS'label'
p556
S'feeling bad'
p557
sS'id'
p558
S'MFOEM:000108'
p559
sS'definition'
p560
S'The subjective emotional feeling of feeling bad, negative.'
p561
sS'category'
p562
g463
sba(i__main__
OntologyTerm
p563
(dp564
S'tag_label'
p565
S'strong'
p566
sS'label'
p567
S'feeling strong'
p568
sS'id'
p569
S'MFOEM:000118'
p570
sS'definition'
p571
S'The subjective feeling of strength, capability, energy and capacity to do things. '
p572
sS'category'
p573
g463
sba(i__main__
OntologyTerm
p574
(dp575
S'tag_label'
p576
S'nervous'
p577
sS'label'
p578
S'feeling nervous'
p579
sS'id'
p580
S'MFOEM:000124'
p581
sS'definition'
p582
S'The subjective feeling of being not at ease, of being anxious or nervous or agitated. '
p583
sS'category'
p584
g463
sba(i__main__
OntologyTerm
p585
(dp586
S'tag_label'
p587
S'calm'
p588
sS'label'
p589
S'feeling calm'
p590
sS'id'
p591
S'MFOEM:000114'
p592
sS'definition'
p593
S'The subjective feeling of being calm, being relaxed, being at peace. '
p594
sS'category'
p595
g463
sba(i__main__
OntologyTerm
p596
(dp597
S'tag_label'
p598
S'alert'
p599
sS'label'
p600
S'feeling alert'
p601
sS'id'
p602
S'MFOEM:000121'
p603
sS'definition'
p604
S'The subjective feeling of being wide awake, alert, having active attention and perception. '
p605
sS'category'
p606
g463
sba(i__main__
OntologyTerm
p607
(dp608
S'tag_label'
p609
S'this is not expected'
p610
sS'label'
p611
S'appraisal as not expected'
p612
sS'id'
p613
S'MFOEM:000069'
p614
sS'definition'
p615
S'An appraisal that represents an evaluation that an event was not expected.'
p616
sS'category'
p617
S'thought'
p618
sba(i__main__
OntologyTerm
p619
(dp620
S'tag_label'
p621
S'I am being treated justly'
p622
sS'label'
p623
S'appraisal as just treatment'
p624
sS'id'
p625
S'MFOEM:000101'
p626
sS'definition'
p627
S'An appraisal which represents an evaluation that the person was treated justly by another person. '
p628
sS'category'
p629
g618
sba(i__main__
OntologyTerm
p630
(dp631
S'tag_label'
p632
S'this is not predictable'
p633
sS'label'
p634
S'appraisal as not predictable'
p635
sS'id'
p636
S'MFOEM:000067'
p637
sS'definition'
p638
S'An appraisal that represents an evaluation that an event was not easy to predict. '
p639
sS'category'
p640
g618
sba(i__main__
OntologyTerm
p641
(dp642
S'tag_label'
p643
S'this is not being deliberately caused'
p644
sS'label'
p645
S'appraisal as unintended'
p646
sS'id'
p647
S'MFOEM:000084'
p648
sS'definition'
p649
S'An appraisal that represents an evaluation that an event was caused unintentionally.'
p650
sS'category'
p651
g618
sba(i__main__
OntologyTerm
p652
(dp653
S'tag_label'
p654
S'this is dangerous'
p655
sS'label'
p656
S'appraisal as dangerous'
p657
sS'id'
p658
S'MFOEM:000104'
p659
sS'definition'
p660
S'An appraisal that represents an evaluation that an object or situation is dangerous to the person. '
p661
sS'category'
p662
g618
sba(i__main__
OntologyTerm
p663
(dp664
S'tag_label'
p665
S'a response is needed urgently'
p666
sS'label'
p667
S'appraisal as urgent response'
p668
sS'id'
p669
S'MFOEM:000089'
p670
sS'definition'
p671
S'An appraisal that represents an evaluation that an event requires an urgent (immediate) response. '
p672
sS'category'
p673
g618
sba(i__main__
OntologyTerm
p674
(dp675
S'tag_label'
p676
S'this is being deliberately caused'
p677
sS'label'
p678
S'appraisal as deliberate'
p679
sS'id'
p680
S'MFOEM:000083'
p681
sS'definition'
p682
S'An appraisal that represents an evaluation that an event was deliberately (intentionally) caused. '
p683
sS'category'
p684
g618
sba(i__main__
OntologyTerm
p685
(dp686
S'tag_label'
p687
S'this is not dangerous'
p688
sS'label'
p689
S'appraisal as not dangerous'
p690
sS'id'
p691
S'MFOEM:000105'
p692
sS'definition'
p693
S'An appraisal that represents an evaluation that an object or situation is not dangerous to the person. '
p694
sS'category'
p695
g618
sba(i__main__
OntologyTerm
p696
(dp697
S'tag_label'
p698
S'this is expected'
p699
sS'label'
p700
S'appraisal as expected'
p701
sS'id'
p702
S'MFOEM:000068'
p703
sS'definition'
p704
S'An appraisal that represents an evaluation that an event was expected. '
p705
sS'category'
p706
g618
sba(i__main__
OntologyTerm
p707
(dp708
S'tag_label'
p709
S'I am not at the centre of attention'
p710
sS'label'
p711
S'appraisal as not being at the centre of attention'
p712
sS'id'
p713
S'MFOEM:000099'
p714
sS'definition'
p715
S'An appraisal that represents a judgement that a person is not at the centre of the surrounding social attention. '
p716
sS'category'
p717
g618
sba(i__main__
OntologyTerm
p718
(dp719
S'tag_label'
p720
S'there are consequences and they are unavoidable'
p721
sS'label'
p722
S'appraisal as unavoidable consequences'
p723
sS'id'
p724
S'MFOEM:000093'
p725
sS'definition'
p726
S'An appraisal that represents a judgement that the expected consequences of an event will be difficult to avoid or modify. '
p727
sS'category'
p728
g618
sba(i__main__
OntologyTerm
p729
(dp730
S'tag_label'
p731
S'I am being treated unjustly'
p732
sS'label'
p733
S'appraisal as unjust treatment'
p734
sS'id'
p735
S'MFOEM:000102'
p736
sS'definition'
p737
S'An appraisal that represents an evaluation that the person was treated unjustly by another person. (Injustice.) '
p738
sS'category'
p739
g618
sba(i__main__
OntologyTerm
p740
(dp741
S'tag_label'
p742
S'this is not familiar'
p743
sS'label'
p744
S'appraisal as not familiar'
p745
sS'id'
p746
S'MFOEM:000065'
p747
sS'definition'
p748
S'An appraisal that represents an evaluation that an object or event is not familiar. '
p749
sS'category'
p750
g618
sba(i__main__
OntologyTerm
p751
(dp752
S'tag_label'
p753
S'this is not important for my goals'
p754
sS'label'
p755
S'evaluation as not important to goals'
p756
sS'id'
p757
S'MFOEM:000074'
p758
sS'definition'
p759
S"An appraisal that represents an evaluation that the event or object is not important to the person's goals or needs. "
p760
sS'category'
p761
g618
sba(i__main__
OntologyTerm
p762
(dp763
S'tag_label'
p764
S'this is familiar'
p765
sS'label'
p766
S'appraisal as familiar'
p767
sS'id'
p768
S'MFOEM:000064'
p769
sS'definition'
p770
S'An appraisal that represents an evaluation that an object or event is familiar. '
p771
sS'category'
p772
g618
sba(i__main__
OntologyTerm
p773
(dp774
S'tag_label'
p775
S'this is being caused by chance'
p776
sS'label'
p777
S'appraisal as caused by chance'
p778
sS'id'
p779
S'MFOEM:000077'
p780
sS'definition'
p781
S'An appraisal that represents an evaluation that an event was caused by chance. '
p782
sS'category'
p783
g618
sba(i__main__
OntologyTerm
p784
(dp785
S'tag_label'
p786
S'this is pleasant'
p787
sS'label'
p788
S'appraisal as pleasant'
p789
sS'id'
p790
S'MFOEM:000070'
p791
sS'definition'
p792
S'An appraisal that represents an evaluation that an object or event is pleasant.'
p793
sS'category'
p794
g618
sba(i__main__
OntologyTerm
p795
(dp796
S'tag_label'
p797
S'I have irrevocably lost something important'
p798
sS'label'
p799
S'appraisal of loss'
p800
sS'id'
p801
S'MFOEM:000106'
p802
sS'definition'
p803
S'An appraisal that represents a belief that something or someone that is important to the person has been lost to the person. '
p804
sS'category'
p805
g618
sba(i__main__
OntologyTerm
p806
(dp807
S'tag_label'
p808
S'this is against my ideals'
p809
sS'label'
p810
S'appraisal as not congruent with ideals'
p811
sS'id'
p812
S'MFOEM:000096'
p813
sS'definition'
p814
S"An appraisal that represents a judgement that an event is inconsistent with a person's standards or ideals. "
p815
sS'category'
p816
g618
sba(i__main__
OntologyTerm
p817
(dp818
S'tag_label'
p819
S'this is predictable'
p820
sS'label'
p821
S'appraisal as predictable'
p822
sS'id'
p823
S'MFOEM:000066'
p824
sS'definition'
p825
S'An appraisal that represents an evaluation that an event was easy to predict. '
p826
sS'category'
p827
g618
sba(i__main__
OntologyTerm
p828
(dp829
S'tag_label'
p830
S'this is being caused by me'
p831
sS'label'
p832
S'appraisal as caused by self'
p833
sS'id'
p834
S'MFOEM:000076'
p835
sS'definition'
p836
S'An appraisal that represents an evaluation that an event was caused by the self. '
p837
sS'category'
p838
g618
sba(i__main__
OntologyTerm
p839
(dp840
S'tag_label'
p841
S'this has undesirable consequences'
p842
sS'label'
p843
S'appraisal as undesirable consequences'
p844
sS'id'
p845
S'MFOEM:000087'
p846
sS'definition'
p847
S'An appraisal that represents an evaluation that the expected consequences of an event are undesirable. '
p848
sS'category'
p849
g618
sba(i__main__
OntologyTerm
p850
(dp851
S'tag_label'
p852
S'this is in line with my ideals'
p853
sS'label'
p854
S'appraisal as congruent with ideals'
p855
sS'id'
p856
S'MFOEM:000095'
p857
sS'definition'
p858
S"An appraisal which represents a judgement that an event is consistent with the person's standards or ideals."
p859
sS'category'
p860
g618
sba(i__main__
OntologyTerm
p861
(dp862
S'tag_label'
p863
S'this is unpleasant'
p864
sS'label'
p865
S'appraisal as unpleasant'
p866
sS'id'
p867
S'MFOEM:000071'
p868
sS'definition'
p869
S'An appraisal that represents an evaluation that an object or event is unpleasant.'
p870
sS'category'
p871
g618
sba(i__main__
OntologyTerm
p872
(dp873
S'tag_label'
p874
S'there are consequences but they are avoidable'
p875
sS'label'
p876
S'appraisal as avoidable consequences'
p877
sS'id'
p878
S'MFOEM:000092'
p879
sS'definition'
p880
S'An appraisal that represents a judgement that the expected consequences of an event are in principle avoidable or modfiable. '
p881
sS'category'
p882
g618
sba(i__main__
OntologyTerm
p883
(dp884
S'tag_label'
p885
S'this is being caused supernaturally'
p886
sS'label'
p887
S'appraisal as caused supernaturally'
p888
sS'id'
p889
S'MFOEM:000081'
p890
sS'definition'
p891
S'An appraisal that represents an evaluation that an event was caused by a supernatural agent (God, the ancestors, ghosts...).'
p892
sS'category'
p893
g618
sba(i__main__
OntologyTerm
p894
(dp895
S'tag_label'
p896
S'this is important for my goals'
p897
sS'label'
p898
S'evaluation as important to goals'
p899
sS'id'
p900
S'MFOEM:000073'
p901
sS'definition'
p902
S"An appraisal that represents an evaluation that the event or object is important to the person's goals or needs. "
p903
sS'category'
p904
g618
sba(i__main__
OntologyTerm
p905
(dp906
S'tag_label'
p907
S'this has desirable consequences'
p908
sS'label'
p909
S'appraisal as desirable consequences'
p910
sS'id'
p911
S'MFOEM:000086'
p912
sS'definition'
p913
S'An appraisal that represents an evaluation that the expected consequences of an event are desirable. '
p914
sS'category'
p915
g618
sba(i__main__
OntologyTerm
p916
(dp917
S'tag_label'
p918
S'this is not sudden'
p919
sS'label'
p920
S'appraisal as not sudden'
p921
sS'id'
p922
S'MFOEM:000063'
p923
sS'definition'
p924
S'An appraisal that represents an evaluation that an event did not occur suddenly. '
p925
sS'category'
p926
g618
sba(i__main__
OntologyTerm
p927
(dp928
S'tag_label'
p929
S'this is being caused by someone else'
p930
sS'label'
p931
S'appraisal as caused by an other'
p932
sS'id'
p933
S'MFOEM:000078'
p934
sS'definition'
p935
S'An appraisal that represents an evaluation that an event was caused by another person.'
p936
sS'category'
p937
g618
sba(i__main__
OntologyTerm
p938
(dp939
S'tag_label'
p940
S'a response is needed but not urgently'
p941
sS'label'
p942
S'appraisal as not urgent response'
p943
sS'id'
p944
S'MFOEM:000090'
p945
sS'definition'
p946
S'An appraisal that represents an evaluation that an event does not require an urgent response. '
p947
sS'category'
p948
g618
sba(i__main__
OntologyTerm
p949
(dp950
S'tag_label'
p951
S'this is sudden'
p952
sS'label'
p953
S'appraisal as sudden'
p954
sS'id'
p955
S'MFOEM:000062'
p956
sS'definition'
p957
S'An appraisal that represents an evaluation that an event occurred suddenly. '
p958
sS'category'
p959
g618
sba(i__main__
OntologyTerm
p960
(dp961
S'tag_label'
p962
S'I am at the centre of attention'
p963
sS'label'
p964
S'appraisal as being at the centre of attention'
p965
sS'id'
p966
S'MFOEM:000098'
p967
sS'definition'
p968
S'An appraisal which represents a judgement that the person is at the centre of the surrounding social attention. (That is, that all other nearby persons are paying attention to him/her.)'
p969
sS'category'
p970
g618
sba.