(lp0
ccopy_reg
_reconstructor
p1
(c__main__
Talk
p2
c__builtin__
object
p3
Ntp4
Rp5
(dp6
S'start_time'
p7
cdatetime
datetime
p8
(S'\x07\xdc\x07\x17\t\x00\x00\x00\x00\x00'
p9
tp10
Rp11
sS'authors'
p12
S'Ramona Walls, Barry Smith, Justin Elser, Albert Goldfain, Dennis W. Stevenson and Pankaj Jaiswal'
p13
sS'end_time'
p14
g8
(S'\x07\xdc\x07\x17\t\x14\x00\x00\x00\x00'
p15
tp16
Rp17
sS'title'
p18
S'A plant disease extension of the Infectious Disease Ontology'
p19
sbag1
(g2
g3
Ntp20
Rp21
(dp22
g7
g8
(S'\x07\xdc\x07\x17\t\x14\x00\x00\x00\x00'
p23
tp24
Rp25
sg12
S'Joao D Ferreira, Catia Pesquita, Francisco Couto and Mario Silva'
p26
sg14
g8
(S'\x07\xdc\x07\x17\t(\x00\x00\x00\x00'
p27
tp28
Rp29
sg18
S'Bringing epidemiology into the Semantic Web'
p30
sbag1
(g2
g3
Ntp31
Rp32
(dp33
g7
g8
(S'\x07\xdc\x07\x17\t(\x00\x00\x00\x00'
p34
tp35
Rp36
sg12
S'Albert Goldfain, Lindsay Cowell and Barry Smith'
p37
sg14
g8
(S'\x07\xdc\x07\x17\n\x00\x00\x00\x00\x00'
p38
tp39
Rp40
sg18
S'Constructing a Lattice of Infectious Disease Ontologies from a Staphylococcus aureus Isolate Repository'
p41
sbag1
(g2
g3
Ntp42
Rp43
(dp44
g7
g8
(S'\x07\xdc\x07\x17\n2\x00\x00\x00\x00'
p45
tp46
Rp47
sg12
S'Suzanne Santamaria, Maureen Fallon, Julie Green, Stefan Schulz and Jeffrey Wilcke'
p48
sg14
g8
(S'\x07\xdc\x07\x17\x0b\n\x00\x00\x00\x00'
p49
tp50
Rp51
sg18
S'Developing the Animals in Context Ontology'
p52
sbag1
(g2
g3
Ntp53
Rp54
(dp55
g7
g8
(S'\x07\xdc\x07\x17\x0b\n\x00\x00\x00\x00'
p56
tp57
Rp58
sg12
S'Hiroshi Masuya and Riichiro Mizoguchi'
p59
sg14
g8
(S'\x07\xdc\x07\x17\x0b\x1e\x00\x00\x00\x00'
p60
tp61
Rp62
sg18
S'An Ontology of Gene'
p63
sbag1
(g2
g3
Ntp64
Rp65
(dp66
g7
g8
(S'\x07\xdc\x07\x17\x0e\x14\x00\x00\x00\x00'
p67
tp68
Rp69
sg12
S'Heiner Oberkampf, Sonja Zillner and Bernhard Bauer'
p70
sg14
g8
(S'\x07\xdc\x07\x17\x0e(\x00\x00\x00\x00'
p71
tp72
Rp73
sg18
S'Interpreting Patient Data using Medical Background Knowledge'
p74
sbag1
(g2
g3
Ntp75
Rp76
(dp77
g7
g8
(S'\x07\xdc\x07\x17\x0e(\x00\x00\x00\x00'
p78
tp79
Rp80
sg12
S'Watson Wei Khong Chua and Jung-Jae Kim'
p81
sg14
g8
(S'\x07\xdc\x07\x17\x0f\x00\x00\x00\x00\x00'
p82
tp83
Rp84
sg18
S'Discovering Cross-Ontology Subsumption Relationships by Using Ontological Annotations on Biomedical Literature'
p85
sbag1
(g2
g3
Ntp86
Rp87
(dp88
g7
g8
(S'\x07\xdc\x07\x17\x0f(\x00\x00\x00\x00'
p89
tp90
Rp91
sg12
S'Fabr\xc3\xadcio Mendon\xc3\xa7a, K\xc3\xa1tia Coelho, Andr\xc3\xa9 Andrade and Mauricio Almeida'
p92
sg14
g8
(S'\x07\xdc\x07\x17\x10\x00\x00\x00\x00\x00'
p93
tp94
Rp95
sg18
S'Knowledge Acquisition in the construction of ontologies: a case study in the domain of hematology'
p96
sbag1
(g2
g3
Ntp97
Rp98
(dp99
g7
g8
(S'\x07\xdc\x07\x17\x10\x00\x00\x00\x00\x00'
p100
tp101
Rp102
sg12
S'Rachel Richesson, Jyotishman Pathak, Wendy Mcleod, Ginger Blackmon and Kendra Vehik'
p103
sg14
g8
(S'\x07\xdc\x07\x17\x10\x14\x00\x00\x00\x00'
p104
tp105
Rp106
sg18
S'Requirements and Strategy for the Development of a Pediatric Drug Ontology'
p107
sbag1
(g2
g3
Ntp108
Rp109
(dp110
g7
g8
(S'\x07\xdc\x07\x17\x10\x14\x00\x00\x00\x00'
p111
tp112
Rp113
sg12
S'Daniel Schober, Vojtech Svatek and Martin Boeker'
p114
sg14
g8
(S'\x07\xdc\x07\x17\x10(\x00\x00\x00\x00'
p115
tp116
Rp117
sg18
S'Checking Class Labels against Naming Conventions: First experiences with the OntoCheck Prot\xc3\xa9g\xc3\xa9 plugin'
p118
sbag1
(g2
g3
Ntp119
Rp120
(dp121
g7
g8
(S'\x07\xdc\x07\x18\t\x00\x00\x00\x00\x00'
p122
tp123
Rp124
sg12
S'Patrice Seyed, Alan Rector, Uli Sattler, Bijan Parsia and Robert Stevens'
p125
sg14
g8
(S'\x07\xdc\x07\x18\t\x14\x00\x00\x00\x00'
p126
tp127
Rp128
sg18
S'Representation of Part-Whole Relationships in SNOMED CT'
p129
sbag1
(g2
g3
Ntp130
Rp131
(dp132
g7
g8
(S'\x07\xdc\x07\x18\t\x14\x00\x00\x00\x00'
p133
tp134
Rp135
sg12
S'Janna Hastings, Nicolas Le Nov\xc3\xa8re, Werner Ceusters, Kevin Mulligan and Barry Smith'
p136
sg14
g8
(S'\x07\xdc\x07\x18\t(\x00\x00\x00\x00'
p137
tp138
Rp139
sg18
S"Wanting what we don't want to want: Representing addiction in interoperable bio-ontologies"
p140
sbag1
(g2
g3
Ntp141
Rp142
(dp143
g7
g8
(S'\x07\xdc\x07\x18\t(\x00\x00\x00\x00'
p144
tp145
Rp146
sg12
S'Michael Bada and Karen Eilbeck'
p147
sg14
g8
(S'\x07\xdc\x07\x18\n\x00\x00\x00\x00\x00'
p148
tp149
Rp150
sg18
S'Efforts toward a More Consistent and Interoperable Sequence Ontology'
p151
sbag1
(g2
g3
Ntp152
Rp153
(dp154
g7
g8
(S'\x07\xdc\x07\x18\n2\x00\x00\x00\x00'
p155
tp156
Rp157
sg12
S'Christian Boelling, Michel Dumontier, Michael Weidlich and Hermann-Georg Holzh\xc3\xbctter'
p158
sg14
g8
(S'\x07\xdc\x07\x18\x0b\n\x00\x00\x00\x00'
p159
tp160
Rp161
sg18
S'Role-based representation and inference of biochemical processes'
p162
sbag1
(g2
g3
Ntp163
Rp164
(dp165
g7
g8
(S'\x07\xdc\x07\x18\x0b\n\x00\x00\x00\x00'
p166
tp167
Rp168
sg12
S'Jean Marie Rodrigues, Stefan Schulz, C\xc3\xa9dric Bousquet and Julien Souvignet'
p169
sg14
g8
(S'\x07\xdc\x07\x18\x0b\x1e\x00\x00\x00\x00'
p170
tp171
Rp172
sg18
S'The CEN ISO Standard Categorial Structure as a Top-Level Set of Constraints for Ontology Disambiguation'
p173
sbag1
(g2
g3
Ntp174
Rp175
(dp176
g7
g8
(S'\x07\xdc\x07\x18\x0b\x1e\x00\x00\x00\x00'
p177
tp178
Rp179
sg12
S'Mar\xc3\xada Del Carmen Legaz-Garc\xc3\xada, Catalina Mart\xc3\xadnez-Costa, Marcos Men\xc3\xa1rguez-Tortosa and Jesualdo Tom\xc3\xa1s Fern\xc3\xa1ndez-Breis'
p180
sg14
g8
(S'\x07\xdc\x07\x18\x0b2\x00\x00\x00\x00'
p181
tp182
Rp183
sg18
S'Exploitation of ontologies for the management of clinical archetypes in ArchMS'
p184
sbag1
(g2
g3
Ntp185
Rp186
(dp187
g7
g8
(S'\x07\xdc\x07\x18\x0e\x14\x00\x00\x00\x00'
p188
tp189
Rp190
sg12
S'Aravind Venkatesan, Vladimir Mironov and Martin Kuiper'
p191
sg14
g8
(S'\x07\xdc\x07\x18\x0e(\x00\x00\x00\x00'
p192
tp193
Rp194
sg18
S'Towards an integrated knowledge system for capturing gene expression events'
p195
sbag1
(g2
g3
Ntp196
Rp197
(dp198
g7
g8
(S'\x07\xdc\x07\x18\x0e(\x00\x00\x00\x00'
p199
tp200
Rp201
sg12
S'Simon Walk, Markus Strohmaier, Tania Tudorache, Natalya F. Noy, Csongor Nyulas and Mark A. Musen'
p202
sg14
g8
(S'\x07\xdc\x07\x18\x0f\x00\x00\x00\x00\x00'
p203
tp204
Rp205
sg18
S'Recommending Concepts to Experts: An Exploration of Recommender Techniques for Collaborative Ontology Engineering Platforms in the Biomedical Domain'
p206
sbag1
(g2
g3
Ntp207
Rp208
(dp209
g7
g8
(S'\x07\xdc\x07\x18\x0f\x00\x00\x00\x00\x00'
p210
tp211
Rp212
sg12
S'Valerie Cross, Pramit Silwal and David Morell'
p213
sg14
g8
(S'\x07\xdc\x07\x18\x0f\x14\x00\x00\x00\x00'
p214
tp215
Rp216
sg18
S'Using a Reference Ontology with Semantic Similarity in Ontology Alignment'
p217
sbag1
(g2
g3
Ntp218
Rp219
(dp220
g7
g8
(S'\x07\xdc\x07\x18\x0f2\x00\x00\x00\x00'
p221
tp222
Rp223
sg12
S'Maria Copeland, Andy Brown, Helen Parkinson, Robert Stevens and James Malone'
p224
sg14
g8
(S'\x07\xdc\x07\x18\x10\n\x00\x00\x00\x00'
p225
tp226
Rp227
sg18
S'The SWO Project: A Case Study for Applying Agile Ontology Engineering Methods for Community Driven Ontologies'
p228
sbag1
(g2
g3
Ntp229
Rp230
(dp231
g7
g8
(S'\x07\xdc\x07\x18\x10\n\x00\x00\x00\x00'
p232
tp233
Rp234
sg12
S'Simon Jupp, Andrew Gibson, James Malone and Robert Stevens'
p235
sg14
g8
(S'\x07\xdc\x07\x18\x10\x1e\x00\x00\x00\x00'
p236
tp237
Rp238
sg18
S'Taking a view on bio-ontologies'
p239
sbag1
(g2
g3
Ntp240
Rp241
(dp242
g7
g8
(S'\x07\xdc\x07\x18\x10\x1e\x00\x00\x00\x00'
p243
tp244
Rp245
sg12
S'Bo Fu, Lars Grammel and Margaret-Anne Storey'
p246
sg14
g8
(S'\x07\xdc\x07\x18\x102\x00\x00\x00\x00'
p247
tp248
Rp249
sg18
S'BioMixer: A Web-based Collaborative Ontology Visualization Tool'
p250
sbag1
(g2
g3
Ntp251
Rp252
(dp253
g7
g8
(S'\x07\xdc\x07\x18\x11\x14\x00\x00\x00\x00'
p254
tp255
Rp256
sg12
S'Kouji Kozaki, Riichiro Mizoguchi, Takeshi Imai and Kazuhiko Ohe'
p257
sg14
g8
(S'\x07\xdc\x07\x18\x11(\x00\x00\x00\x00'
p258
tp259
Rp260
sg18
S'Identity Tracking of a Disease as a Causal Chain'
p261
sbag1
(g2
g3
Ntp262
Rp263
(dp264
g7
g8
(S'\x07\xdc\x07\x18\x11(\x00\x00\x00\x00'
p265
tp266
Rp267
sg12
S'Andre Andrade, Mauricio Almeida and Stefan Schulz'
p268
sg14
g8
(S'\x07\xdc\x07\x18\x12\x00\x00\x00\x00\x00'
p269
tp270
Rp271
sg18
S'Revisiting ontological foundations of the OpenEHR Entry Model'
p272
sbag1
(g2
g3
Ntp273
Rp274
(dp275
g7
g8
(S'\x07\xdc\x07\x19\x08\x1e\x00\x00\x00\x00'
p276
tp277
Rp278
sg12
S'Colin Batchelor and Janna Hastings'
p279
sg14
g8
(S'\x07\xdc\x07\x19\x082\x00\x00\x00\x00'
p280
tp281
Rp282
sg18
S'Waves and fields in bio-ontologies'
p283
sbag1
(g2
g3
Ntp284
Rp285
(dp286
g7
g8
(S'\x07\xdc\x07\x19\x082\x00\x00\x00\x00'
p287
tp288
Rp289
sg12
S'Martin Boeker, Daniel Schober, Djamila Raufie, Niels Grewe, Johannes R\xc3\xb6hl, Ludger Jansen and Stefan Schulz'
p290
sg14
g8
(S'\x07\xdc\x07\x19\t\n\x00\x00\x00\x00'
p291
tp292
Rp293
sg18
S'Teaching Good Biomedical Ontology Design'
p294
sba.